; Function Attrs: mustprogress nofree norecurse nosync nounwind willreturn memory(read, inaccessiblemem: none) uwtable
define noundef nonnull ptr @_Z7ftp2exti(i32 noundef %0) local_unnamed_addr #0 {
  %or.cond = icmp ult i32 %0, 44
  br i1 %or.cond, label %2, label %8

2:                                                ; preds = %1
  %3 = zext nneg i32 %0 to i64
  %4 = getelementptr inbounds nuw [44 x %struct.t_deffile], ptr @_ZL7deffile, i64 0, i64 %3, i32 1
  %5 = load ptr, ptr %4, align 8, !tbaa !4
  %6 = load i8, ptr %5, align 1, !tbaa !12
  %.not = icmp eq i8 %6, 0
  %7 = getelementptr inbounds nuw i8, ptr %5, i64 1
  %spec.select = select i1 %.not, ptr @.str, ptr %7
  br label %8

8:                                                ; preds = %1, %2
  %.0 = phi ptr [ %spec.select, %2 ], [ @.str.1, %1 ]
  ret ptr %.0
}